(dp0
S''
p1
I18
sS'PAD_WORD'
p2
I0
sS'[Tl+3]'
p3
I241
sS'[Au]'
p4
I194
sS'[V+4]'
p5
I209
sS'[AlH2-]'
p6
I137
sS'[IH2+]'
p7
I199
sS'[Zn+]'
p8
I105
sS'[Cr+2]'
p9
I230
sS'$'
p10
I287
sS'[Pt+3]'
p11
I153
sS'[B+2]'
p12
I256
sS'[Cr]'
p13
I65
sS'[Ru+2]'
p14
I238
sS'[Ag+2]'
p15
I126
sS'[IH+]'
p16
I271
sS'[Rh+3]'
p17
I214
sS'[Cd]'
p18
I236
sS'[S+]'
p19
I83
sS'[Ni]'
p20
I120
sS'[Ga+]'
p21
I281
sS'[Li]'
p22
I34
sS'[PH5]'
p23
I197
sS'[B-]'
p24
I93
sS'('
p25
I2
sS'[c+]'
p26
I273
sS'[H-]'
p27
I35
sS'[Ce+2]'
p28
I255
sS'[Mn+3]'
p29
I200
sS'[Se]'
p30
I101
sS'[SnH3]'
p31
I172
sS'[Ti+3]'
p32
I100
sS'[Zn]'
p33
I62
sS'4'
p34
I24
sS'Br'
p35
I25
sS'[Sn+]'
p36
I190
sS'[Cd+2]'
p37
I174
sS'[La]'
p38
I215
sS'[Pr+3]'
p39
I188
sS'[As+]'
p40
I166
sS'[CH3]'
p41
I109
sS'[K+]'
p42
I36
sS'[P+]'
p43
I71
sS'[KH]'
p44
I92
sS'[Cl+2]'
p45
I211
sS'[SH-]'
p46
I144
sS'[IH2]'
p47
I156
sS'[Cu]'
p48
I55
sS'P'
p49
I45
sS'[Dy+3]'
p50
I176
sS'[P+3]'
p51
I154
sS'[Ga+3]'
p52
I244
sS'[Ce+4]'
p53
I113
sS'[Ni+2]'
p54
I206
sS'[Ce]'
p55
I86
sS'[PH2]'
p56
I81
sS'[Os]'
p57
I108
sS'[NH+]'
p58
I107
sS'[Rb+]'
p59
I228
sS'[Sc+3]'
p60
I122
sS'[CH+]'
p61
I260
sS'[Sn+3]'
p62
I261
sS'[Ru]'
p63
I117
sS'[Yb+3]'
p64
I111
sS'[Ti+2]'
p65
I254
sS'p'
p66
I183
sS'[Ir]'
p67
I181
sS'[Fe]'
p68
I75
sS'[Sm+2]'
p69
I203
sS'[Sm+3]'
p70
I168
sS'[SnH2]'
p71
I207
sS'[Pd+]'
p72
I163
sS'[OH]'
p73
I145
sS'[IH2+3]'
p74
I267
sS'[nH]'
p75
I23
sS'[Ba+2]'
p76
I97
sS'[V]'
p77
I246
sS'[PH3+]'
p78
I150
sS'[CH2+]'
p79
I160
sS'[Mg+]'
p80
I4
sS'[Co+2]'
p81
I185
sS'[Ba]'
p82
I191
sS'[Ce+3]'
p83
I85
sS'[OH2+]'
p84
I275
sS'[Sc]'
p85
I219
sS'[Pb+3]'
p86
I265
sS'[SiH3]'
p87
I136
sS'[Hg]'
p88
I64
sS'[Re]'
p89
I251
sS'[SeH-]'
p90
I201
sS'[Br+]'
p91
I242
sS'#'
p92
I21
sS'[C+4]'
p93
I131
sS'[N+]'
p94
I26
sS'[SiH4]'
p95
I124
sS'[In]'
p96
I161
sS'[Fe+3]'
p97
I123
sS'[Fe-4]'
p98
I226
sS'[I+]'
p99
I128
sS'I'
p100
I31
sS'3'
p101
I17
sS'[In+3]'
p102
I129
sS'[Cs+]'
p103
I48
sS'[Pd-2]'
p104
I94
sS'7'
p105
I80
sS'[Yb]'
p106
I193
sS'[Si-]'
p107
I252
sS'[H+]'
p108
I140
sS'[Ar]'
p109
I173
sS'[Br-]'
p110
I56
sS'[Cu+]'
p111
I106
sS'[C+]'
p112
I243
sS'C'
p113
I1
sS'[Ti+5]'
p114
I152
sS'[W]'
p115
I151
sS'O'
p116
I6
sS'[As]'
p117
I187
sS'S'
p118
I22
sS'[RuH3]'
p119
I158
sS'[Cs]'
p120
I132
sS'[B+3]'
p121
I82
sS'[Sm]'
p122
I204
sS'[Xe]'
p123
I270
sS'[Pb+2]'
p124
I165
sS'[SH2]'
p125
I257
sS'c'
p126
I9
sS'[Pd+2]'
p127
I44
sS'[SH]'
p128
I167
sS'[PH4+]'
p129
I119
sS'[Bi]'
p130
I182
sS'[Mn+2]'
p131
I98
sS'[PH2+]'
p132
I274
sS'o'
p133
I40
sS'[Ni+]'
p134
I279
sS'[Ga]'
p135
I208
sS'[Mo]'
p136
I186
sS's'
p137
I20
sS'[sH+]'
p138
I266
sS'[GeH]'
p139
I268
sS'[Sb]'
p140
I221
sS'[SH+]'
p141
I280
sS'[SnH4]'
p142
I192
sS'[Sn+2]'
p143
I157
sS'[SH3+]'
p144
I239
sS'[O-]'
p145
I28
sS'[Bi+3]'
p146
I276
sS'[s+]'
p147
I227
sS'[Hg+]'
p148
I250
sS'[Mg]'
p149
I74
sS'[Ta]'
p150
I240
sS'[V+3]'
p151
I249
sS'[NH2-]'
p152
I110
sS'[I+2]'
p153
I162
sS'[BH]'
p154
I205
sS'[SiH]'
p155
I52
sS'[Pd-]'
p156
I212
sS'[Ru-2]'
p157
I235
sS'[Ag+]'
p158
I103
sS'[He]'
p159
I216
sS'[Zr+]'
p160
I285
sS'[Ta+5]'
p161
I148
sS'[Pd-4]'
p162
I178
sS'[Ca]'
p163
I171
sS'[Zr+4]'
p164
I138
sS'[NH4+]'
p165
I49
sS'[Zr]'
p166
I189
sS'[F-]'
p167
I60
sS'[Co+3]'
p168
I245
sS'[La+3]'
p169
I223
sS'[Al+]'
p170
I39
sS'[Cu+2]'
p171
I54
sS'[c-]'
p172
I134
sS'[o+]'
p173
I272
sS'[N+3]'
p174
I233
sS'[SiH2]'
p175
I164
sS'[Na]'
p176
I42
sS'.'
p177
I5
sS'[Al+3]'
p178
I46
sS'2'
p179
I14
sS'[Sr+2]'
p180
I282
sS'[I-]'
p181
I43
sS'6'
p182
I68
sS'[BH3-]'
p183
I59
sS'[se]'
p184
I262
sS'>'
p185
I12
sS'[Rh+]'
p186
I195
sS'B'
p187
I33
sS'[CH2-]'
p188
I170
sS'[Be+2]'
p189
I248
sS'F'
p190
I15
sS'[OH-]'
p191
I37
sS'[O+]'
p192
I114
sS'[AlH]'
p193
I96
sS'[Al]'
p194
I32
sS'[LiH]'
p195
I169
sS'N'
p196
I7
sS'[Cr+6]'
p197
I247
sS'[Si+]'
p198
I284
sS'[I+3]'
p199
I95
sS'8'
p200
I220
sS'[Hf]'
p201
I232
sS'[Pb+4]'
p202
I155
sS'[Fe+2]'
p203
I146
sS'b'
p204
I112
sS'[Y+3]'
p205
I237
sS'Cl'
p206
I19
sS'[Br+2]'
p207
I177
sS'[Pt]'
p208
I76
sS'[Li+]'
p209
I47
sS'[Pd]'
p210
I51
sS'[GeH4]'
p211
I147
sS'[AlH3]'
p212
I198
sS'n'
p213
I11
sS'[Tl]'
p214
I179
sS'[Cl-]'
p215
I13
sS'[Ti+]'
p216
I149
sS'[Mn]'
p217
I89
sS'[PdH2]'
p218
I210
sS'[Rh]'
p219
I116
sS'[Zn+2]'
p220
I69
sS'[Sn+4]'
p221
I184
sS'[AlH4-]'
p222
I115
sS'[CH2]'
p223
I133
sS'[Nd+3]'
p224
I118
sS'[nH+]'
p225
I66
sS'[Na+]'
p226
I30
sS'[PH+]'
p227
I127
sS'[SnH]'
p228
I91
sS'[Cr+3]'
p229
I202
sS'[Cl+3]'
p230
I88
sS'[K]'
p231
I38
sS'[Co]'
p232
I99
sS'[P-]'
p233
I27
sS'[Se-]'
p234
I125
sS'[Zr+2]'
p235
I213
sS'[S-]'
p236
I57
sS'[Ni+3]'
p237
I278
sS'[Ag]'
p238
I84
sS'[CH-]'
p239
I104
sS'[Nd]'
p240
I283
sS'[BH-]'
p241
I58
sS'[Rh+2]'
p242
I141
sS'[Hg+2]'
p243
I196
sS')'
p244
I3
sS'[n-]'
p245
I135
sS'[Tl+2]'
p246
I218
sS'[Ti]'
p247
I130
sS'-'
p248
I16
sS'[SH2+]'
p249
I258
sS'[PH3]'
p250
I175
sS'[B+]'
p251
I102
sS'1'
p252
I10
sS'[Ca+2]'
p253
I87
sS'5'
p254
I63
sS'[NH3+]'
p255
I143
sS'[PH]'
p256
I78
sS'='
p257
I8
sS'[NH2+]'
p258
I90
sS'[Hf+4]'
p259
I180
sS'[TaH3]'
p260
I264
sS'[C-]'
p261
I61
sS'[N-]'
p262
I70
sS'[Cl+]'
p263
I41
sS'[OH+]'
p264
I234
sS'[P+5]'
p265
I142
sS'[BH4-]'
p266
I29
sS'[Si]'
p267
I53
sS'[H]'
p268
I50
sS'[n+]'
p269
I77
sS'[Fe-3]'
p270
I229
sS'[Tl+]'
p271
I159
sS'[PH4]'
p272
I277
sS'[Ag-]'
p273
I139
sS'[Sn]'
p274
I79
sS'9'
p275
I259
sS'[SeH]'
p276
I263
sS'[Cu+3]'
p277
I222
sS'[Ti+4]'
p278
I73
sS'[Te]'
p279
I224
sS'[Ge]'
p280
I253
sS'[NH-]'
p281
I121
sS'[Eu+3]'
p282
I269
sS'[Pt+2]'
p283
I231
sS'[Al+2]'
p284
I217
sS'[Mg+2]'
p285
I67
sS'[Co+]'
p286
I225
sS'[Pb]'
p287
I72
sS'<'
p288
I286
s.