(dp0
I0
S'PAD_WORD'
p1
sI1
S'C'
p2
sI2
S'('
p3
sI3
S')'
p4
sI4
S'[Mg+]'
p5
sI5
S'.'
p6
sI6
S'O'
p7
sI7
S'N'
p8
sI8
S'='
p9
sI9
S'c'
p10
sI10
S'1'
p11
sI11
S'n'
p12
sI12
S'>'
p13
sI13
S'[Cl-]'
p14
sI14
S'2'
p15
sI15
S'F'
p16
sI16
S'-'
p17
sI17
S'3'
p18
sI18
S''
p19
sI19
S'Cl'
p20
sI20
S's'
p21
sI21
S'#'
p22
sI22
S'S'
p23
sI23
S'[nH]'
p24
sI24
S'4'
p25
sI25
S'Br'
p26
sI26
S'[N+]'
p27
sI27
S'[P-]'
p28
sI28
S'[O-]'
p29
sI29
S'[BH4-]'
p30
sI30
S'[Na+]'
p31
sI31
S'I'
p32
sI32
S'[Al]'
p33
sI33
S'B'
p34
sI34
S'[Li]'
p35
sI35
S'[H-]'
p36
sI36
S'[K+]'
p37
sI37
S'[OH-]'
p38
sI38
S'[K]'
p39
sI39
S'[Al+]'
p40
sI40
S'o'
p41
sI41
S'[Cl+]'
p42
sI42
S'[Na]'
p43
sI43
S'[I-]'
p44
sI44
S'[Pd+2]'
p45
sI45
S'P'
p46
sI46
S'[Al+3]'
p47
sI47
S'[Li+]'
p48
sI48
S'[Cs+]'
p49
sI49
S'[NH4+]'
p50
sI50
S'[H]'
p51
sI51
S'[Pd]'
p52
sI52
S'[SiH]'
p53
sI53
S'[Si]'
p54
sI54
S'[Cu+2]'
p55
sI55
S'[Cu]'
p56
sI56
S'[Br-]'
p57
sI57
S'[S-]'
p58
sI58
S'[BH-]'
p59
sI59
S'[BH3-]'
p60
sI60
S'[F-]'
p61
sI61
S'[C-]'
p62
sI62
S'[Zn]'
p63
sI63
S'5'
p64
sI64
S'[Hg]'
p65
sI65
S'[Cr]'
p66
sI66
S'[nH+]'
p67
sI67
S'[Mg+2]'
p68
sI68
S'6'
p69
sI69
S'[Zn+2]'
p70
sI70
S'[N-]'
p71
sI71
S'[P+]'
p72
sI72
S'[Pb]'
p73
sI73
S'[Ti+4]'
p74
sI74
S'[Mg]'
p75
sI75
S'[Fe]'
p76
sI76
S'[Pt]'
p77
sI77
S'[n+]'
p78
sI78
S'[PH]'
p79
sI79
S'[Sn]'
p80
sI80
S'7'
p81
sI81
S'[PH2]'
p82
sI82
S'[B+3]'
p83
sI83
S'[S+]'
p84
sI84
S'[Ag]'
p85
sI85
S'[Ce+3]'
p86
sI86
S'[Ce]'
p87
sI87
S'[Ca+2]'
p88
sI88
S'[Cl+3]'
p89
sI89
S'[Mn]'
p90
sI90
S'[NH2+]'
p91
sI91
S'[SnH]'
p92
sI92
S'[KH]'
p93
sI93
S'[B-]'
p94
sI94
S'[Pd-2]'
p95
sI95
S'[I+3]'
p96
sI96
S'[AlH]'
p97
sI97
S'[Ba+2]'
p98
sI98
S'[Mn+2]'
p99
sI99
S'[Co]'
p100
sI100
S'[Ti+3]'
p101
sI101
S'[Se]'
p102
sI102
S'[B+]'
p103
sI103
S'[Ag+]'
p104
sI104
S'[CH-]'
p105
sI105
S'[Zn+]'
p106
sI106
S'[Cu+]'
p107
sI107
S'[NH+]'
p108
sI108
S'[Os]'
p109
sI109
S'[CH3]'
p110
sI110
S'[NH2-]'
p111
sI111
S'[Yb+3]'
p112
sI112
S'b'
p113
sI113
S'[Ce+4]'
p114
sI114
S'[O+]'
p115
sI115
S'[AlH4-]'
p116
sI116
S'[Rh]'
p117
sI117
S'[Ru]'
p118
sI118
S'[Nd+3]'
p119
sI119
S'[PH4+]'
p120
sI120
S'[Ni]'
p121
sI121
S'[NH-]'
p122
sI122
S'[Sc+3]'
p123
sI123
S'[Fe+3]'
p124
sI124
S'[SiH4]'
p125
sI125
S'[Se-]'
p126
sI126
S'[Ag+2]'
p127
sI127
S'[PH+]'
p128
sI128
S'[I+]'
p129
sI129
S'[In+3]'
p130
sI130
S'[Ti]'
p131
sI131
S'[C+4]'
p132
sI132
S'[Cs]'
p133
sI133
S'[CH2]'
p134
sI134
S'[c-]'
p135
sI135
S'[n-]'
p136
sI136
S'[SiH3]'
p137
sI137
S'[AlH2-]'
p138
sI138
S'[Zr+4]'
p139
sI139
S'[Ag-]'
p140
sI140
S'[H+]'
p141
sI141
S'[Rh+2]'
p142
sI142
S'[P+5]'
p143
sI143
S'[NH3+]'
p144
sI144
S'[SH-]'
p145
sI145
S'[OH]'
p146
sI146
S'[Fe+2]'
p147
sI147
S'[GeH4]'
p148
sI148
S'[Ta+5]'
p149
sI149
S'[Ti+]'
p150
sI150
S'[PH3+]'
p151
sI151
S'[W]'
p152
sI152
S'[Ti+5]'
p153
sI153
S'[Pt+3]'
p154
sI154
S'[P+3]'
p155
sI155
S'[Pb+4]'
p156
sI156
S'[IH2]'
p157
sI157
S'[Sn+2]'
p158
sI158
S'[RuH3]'
p159
sI159
S'[Tl+]'
p160
sI160
S'[CH2+]'
p161
sI161
S'[In]'
p162
sI162
S'[I+2]'
p163
sI163
S'[Pd+]'
p164
sI164
S'[SiH2]'
p165
sI165
S'[Pb+2]'
p166
sI166
S'[As+]'
p167
sI167
S'[SH]'
p168
sI168
S'[Sm+3]'
p169
sI169
S'[LiH]'
p170
sI170
S'[CH2-]'
p171
sI171
S'[Ca]'
p172
sI172
S'[SnH3]'
p173
sI173
S'[Ar]'
p174
sI174
S'[Cd+2]'
p175
sI175
S'[PH3]'
p176
sI176
S'[Dy+3]'
p177
sI177
S'[Br+2]'
p178
sI178
S'[Pd-4]'
p179
sI179
S'[Tl]'
p180
sI180
S'[Hf+4]'
p181
sI181
S'[Ir]'
p182
sI182
S'[Bi]'
p183
sI183
S'p'
p184
sI184
S'[Sn+4]'
p185
sI185
S'[Co+2]'
p186
sI186
S'[Mo]'
p187
sI187
S'[As]'
p188
sI188
S'[Pr+3]'
p189
sI189
S'[Zr]'
p190
sI190
S'[Sn+]'
p191
sI191
S'[Ba]'
p192
sI192
S'[SnH4]'
p193
sI193
S'[Yb]'
p194
sI194
S'[Au]'
p195
sI195
S'[Rh+]'
p196
sI196
S'[Hg+2]'
p197
sI197
S'[PH5]'
p198
sI198
S'[AlH3]'
p199
sI199
S'[IH2+]'
p200
sI200
S'[Mn+3]'
p201
sI201
S'[SeH-]'
p202
sI202
S'[Cr+3]'
p203
sI203
S'[Sm+2]'
p204
sI204
S'[Sm]'
p205
sI205
S'[BH]'
p206
sI206
S'[Ni+2]'
p207
sI207
S'[SnH2]'
p208
sI208
S'[Ga]'
p209
sI209
S'[V+4]'
p210
sI210
S'[PdH2]'
p211
sI211
S'[Cl+2]'
p212
sI212
S'[Pd-]'
p213
sI213
S'[Zr+2]'
p214
sI214
S'[Rh+3]'
p215
sI215
S'[La]'
p216
sI216
S'[He]'
p217
sI217
S'[Al+2]'
p218
sI218
S'[Tl+2]'
p219
sI219
S'[Sc]'
p220
sI220
S'8'
p221
sI221
S'[Sb]'
p222
sI222
S'[Cu+3]'
p223
sI223
S'[La+3]'
p224
sI224
S'[Te]'
p225
sI225
S'[Co+]'
p226
sI226
S'[Fe-4]'
p227
sI227
S'[s+]'
p228
sI228
S'[Rb+]'
p229
sI229
S'[Fe-3]'
p230
sI230
S'[Cr+2]'
p231
sI231
S'[Pt+2]'
p232
sI232
S'[Hf]'
p233
sI233
S'[N+3]'
p234
sI234
S'[OH+]'
p235
sI235
S'[Ru-2]'
p236
sI236
S'[Cd]'
p237
sI237
S'[Y+3]'
p238
sI238
S'[Ru+2]'
p239
sI239
S'[SH3+]'
p240
sI240
S'[Ta]'
p241
sI241
S'[Tl+3]'
p242
sI242
S'[Br+]'
p243
sI243
S'[C+]'
p244
sI244
S'[Ga+3]'
p245
sI245
S'[Co+3]'
p246
sI246
S'[V]'
p247
sI247
S'[Cr+6]'
p248
sI248
S'[Be+2]'
p249
sI249
S'[V+3]'
p250
sI250
S'[Hg+]'
p251
sI251
S'[Re]'
p252
sI252
S'[Si-]'
p253
sI253
S'[Ge]'
p254
sI254
S'[Ti+2]'
p255
sI255
S'[Ce+2]'
p256
sI256
S'[B+2]'
p257
sI257
S'[SH2]'
p258
sI258
S'[SH2+]'
p259
sI259
S'9'
p260
sI260
S'[CH+]'
p261
sI261
S'[Sn+3]'
p262
sI262
S'[se]'
p263
sI263
S'[SeH]'
p264
sI264
S'[TaH3]'
p265
sI265
S'[Pb+3]'
p266
sI266
S'[sH+]'
p267
sI267
S'[IH2+3]'
p268
sI268
S'[GeH]'
p269
sI269
S'[Eu+3]'
p270
sI270
S'[Xe]'
p271
sI271
S'[IH+]'
p272
sI272
S'[o+]'
p273
sI273
S'[c+]'
p274
sI274
S'[PH2+]'
p275
sI275
S'[OH2+]'
p276
sI276
S'[Bi+3]'
p277
sI277
S'[PH4]'
p278
sI278
S'[Ni+3]'
p279
sI279
S'[Ni+]'
p280
sI280
S'[SH+]'
p281
sI281
S'[Ga+]'
p282
sI282
S'[Sr+2]'
p283
sI283
S'[Nd]'
p284
sI284
S'[Si+]'
p285
sI285
S'[Zr+]'
p286
sI286
S'<'
p287
sI287
S'$'
p288
s.